target datalayout = "e-m:e-p270:32:32-p271:32:32-p272:64:64-i64:64-i128:128-f80:128-n8:16:32:64-S128"
target triple = "x86_64-pc-linux-gnu"

%struct.anon = type { i32, [0 x i8] }
%struct.FunctionCallInfoBaseData = type { ptr, ptr, ptr, i32, i8, i16, [0 x %struct.NullableDatum] }
%struct.NullableDatum = type { i64, i8 }
%struct.Jsonb = type { i32, %struct.JsonbContainer }
%struct.JsonbContainer = type { i32, [0 x i32] }

; Function Attrs: inlinehint nounwind uwtable
define internal ptr @DatumGetPointer(i64 noundef %0) #3 {
  %2 = alloca i64, align 8
  store i64 %0, ptr %2, align 8
  %3 = load i64, ptr %2, align 8
  %4 = inttoptr i64 %3 to ptr
  ret ptr %4
}

; Function Attrs: inlinehint nounwind uwtable
define internal i64 @PointerGetDatum(ptr noundef %0) #3 {
  %2 = alloca ptr, align 8
  store ptr %0, ptr %2, align 8
  %3 = load ptr, ptr %2, align 8
  %4 = ptrtoint ptr %3 to i64
  ret i64 %4
}

; Function Attrs: inlinehint nounwind uwtable
define internal i32 @pg_abs_s32(i32 noundef %0) #3 {
  %2 = alloca i32, align 4
  store i32 %0, ptr %2, align 4
  %3 = load i32, ptr %2, align 4
  %4 = sext i32 %3 to i64
  %5 = call i64 @llvm.abs.i64(i64 %4, i1 false)
  %6 = trunc i64 %5 to i32
  ret i32 %6
}

; Function Attrs: inlinehint nounwind uwtable
define internal i32 @DatumGetInt32(i64 noundef %0) #3 {
  %2 = alloca i64, align 8
  store i64 %0, ptr %2, align 8
  %3 = load i64, ptr %2, align 8
  %4 = trunc i64 %3 to i32
  ret i32 %4
}

; Function Attrs: inlinehint nounwind uwtable
define internal ptr @DatumGetJsonbP(i64 noundef %0) #3 {
  %2 = alloca i64, align 8
  store i64 %0, ptr %2, align 8
  %3 = load i64, ptr %2, align 8
  %4 = call ptr @DatumGetPointer(i64 noundef %3)
  %5 = call ptr @pg_detoast_datum(ptr noundef %4)
  ret ptr %5
}

; Function Attrs: nounwind uwtable
define dso_local i64 @jsonb_array_element(ptr noundef %0) #0 {
  %2 = alloca i64, align 8
  %3 = alloca ptr, align 8
  %4 = alloca ptr, align 8
  %5 = alloca i32, align 4
  %6 = alloca ptr, align 8
  %7 = alloca i32, align 4
  %8 = alloca i32, align 4
  store ptr %0, ptr %3, align 8
  call void @llvm.lifetime.start.p0(i64 8, ptr %4) #10
  %9 = load ptr, ptr %3, align 8
  %10 = getelementptr inbounds nuw %struct.FunctionCallInfoBaseData, ptr %9, i32 0, i32 6
  %11 = getelementptr inbounds [0 x %struct.NullableDatum], ptr %10, i64 0, i64 0
  %12 = getelementptr inbounds nuw %struct.NullableDatum, ptr %11, i32 0, i32 0
  %13 = load i64, ptr %12, align 8
  %14 = call ptr @DatumGetJsonbP(i64 noundef %13)
  store ptr %14, ptr %4, align 8
  call void @llvm.lifetime.start.p0(i64 4, ptr %5) #10
  %15 = load ptr, ptr %3, align 8
  %16 = getelementptr inbounds nuw %struct.FunctionCallInfoBaseData, ptr %15, i32 0, i32 6
  %17 = getelementptr inbounds [0 x %struct.NullableDatum], ptr %16, i64 0, i64 1
  %18 = getelementptr inbounds nuw %struct.NullableDatum, ptr %17, i32 0, i32 0
  %19 = load i64, ptr %18, align 8
  %20 = call i32 @DatumGetInt32(i64 noundef %19)
  store i32 %20, ptr %5, align 4
  call void @llvm.lifetime.start.p0(i64 8, ptr %6) #10
  %21 = load ptr, ptr %4, align 8
  %22 = getelementptr inbounds nuw %struct.anon, ptr %21, i32 0, i32 1
  %23 = getelementptr inbounds [0 x i8], ptr %22, i64 0, i64 0
  %24 = load i32, ptr %23, align 4
  %25 = and i32 %24, 1073741824
  %26 = icmp ne i32 %25, 0
  br i1 %26, label %33, label %27

27:                                               ; preds = %1
  br label %28

28:                                               ; preds = %27
  %29 = load ptr, ptr %3, align 8
  %30 = getelementptr inbounds nuw %struct.FunctionCallInfoBaseData, ptr %29, i32 0, i32 4
  store i8 1, ptr %30, align 4
  store i64 0, ptr %2, align 8
  store i32 1, ptr %7, align 4
  br label %77

31:                                               ; No predecessors!
  br label %32

32:                                               ; preds = %31
  br label %33

33:                                               ; preds = %32, %1
  %34 = load i32, ptr %5, align 4
  %35 = icmp slt i32 %34, 0
  br i1 %35, label %36, label %60

36:                                               ; preds = %33
  call void @llvm.lifetime.start.p0(i64 4, ptr %8) #10
  %37 = load ptr, ptr %4, align 8
  %38 = getelementptr inbounds nuw %struct.anon, ptr %37, i32 0, i32 1
  %39 = getelementptr inbounds [0 x i8], ptr %38, i64 0, i64 0
  %40 = load i32, ptr %39, align 4
  %41 = and i32 %40, 268435455
  store i32 %41, ptr %8, align 4
  %42 = load i32, ptr %5, align 4
  %43 = call i32 @pg_abs_s32(i32 noundef %42)
  %44 = load i32, ptr %8, align 4
  %45 = icmp ugt i32 %43, %44
  br i1 %45, label %46, label %52

46:                                               ; preds = %36
  br label %47

47:                                               ; preds = %46
  %48 = load ptr, ptr %3, align 8
  %49 = getelementptr inbounds nuw %struct.FunctionCallInfoBaseData, ptr %48, i32 0, i32 4
  store i8 1, ptr %49, align 4
  store i64 0, ptr %2, align 8
  store i32 1, ptr %7, align 4
  br label %57

50:                                               ; No predecessors!
  br label %51

51:                                               ; preds = %50
  br label %56

52:                                               ; preds = %36
  %53 = load i32, ptr %8, align 4
  %54 = load i32, ptr %5, align 4
  %55 = add i32 %54, %53
  store i32 %55, ptr %5, align 4
  br label %56

56:                                               ; preds = %52, %51
  store i32 0, ptr %7, align 4
  br label %57

57:                                               ; preds = %56, %47
  call void @llvm.lifetime.end.p0(i64 4, ptr %8) #10
  %58 = load i32, ptr %7, align 4
  switch i32 %58, label %77 [
    i32 0, label %59
  ]

59:                                               ; preds = %57
  br label %60

60:                                               ; preds = %59, %33
  %61 = load ptr, ptr %4, align 8
  %62 = getelementptr inbounds nuw %struct.Jsonb, ptr %61, i32 0, i32 1
  %63 = load i32, ptr %5, align 4
  %64 = call ptr @getIthJsonbValueFromContainer(ptr noundef %62, i32 noundef %63)
  store ptr %64, ptr %6, align 8
  %65 = load ptr, ptr %6, align 8
  %66 = icmp ne ptr %65, null
  br i1 %66, label %67, label %71

67:                                               ; preds = %60
  %68 = load ptr, ptr %6, align 8
  %69 = call ptr @JsonbValueToJsonb(ptr noundef %68)
  %70 = call i64 @PointerGetDatum(ptr noundef %69)
  store i64 %70, ptr %2, align 8
  store i32 1, ptr %7, align 4
  br label %77

71:                                               ; preds = %60
  br label %72

72:                                               ; preds = %71
  %73 = load ptr, ptr %3, align 8
  %74 = getelementptr inbounds nuw %struct.FunctionCallInfoBaseData, ptr %73, i32 0, i32 4
  store i8 1, ptr %74, align 4
  store i64 0, ptr %2, align 8
  store i32 1, ptr %7, align 4
  br label %77

75:                                               ; No predecessors!
  br label %76

76:                                               ; preds = %75
  store i32 0, ptr %7, align 4
  br label %77

77:                                               ; preds = %76, %72, %67, %57, %28
  call void @llvm.lifetime.end.p0(i64 8, ptr %6) #10
  call void @llvm.lifetime.end.p0(i64 4, ptr %5) #10
  call void @llvm.lifetime.end.p0(i64 8, ptr %4) #10
  %78 = load i32, ptr %7, align 4
  switch i32 %78, label %81 [
    i32 0, label %79
    i32 1, label %79
  ]

79:                                               ; preds = %77, %77
  %80 = load i64, ptr %2, align 8
  ret i64 %80

81:                                               ; preds = %77
  unreachable
}