; Function Attrs: nounwind uwtable
define dso_local i64 @jsonb_array_element(ptr noundef captures(none) %0) local_unnamed_addr #0 {
  %2 = getelementptr inbounds nuw i8, ptr %0, i64 32
  %3 = load i64, ptr %2, align 8
  %4 = inttoptr i64 %3 to ptr
  %5 = tail call ptr @pg_detoast_datum(ptr noundef %4) #15
  %6 = getelementptr inbounds nuw i8, ptr %0, i64 48
  %7 = load i64, ptr %6, align 8
  %8 = trunc i64 %7 to i32
  %9 = getelementptr inbounds nuw i8, ptr %5, i64 4
  %10 = load i32, ptr %9, align 4
  %11 = and i32 %10, 1073741824
  %.not = icmp eq i32 %11, 0
  br i1 %.not, label %12, label %14

12:                                               ; preds = %1
  %13 = getelementptr inbounds nuw i8, ptr %0, i64 28
  store i8 1, ptr %13, align 4
  br label %29

14:                                               ; preds = %1
  %15 = icmp slt i32 %8, 0
  br i1 %15, label %16, label %22

16:                                               ; preds = %14
  %17 = and i32 %10, 268435455
  %18 = sub i32 0, %8
  %.not23 = icmp ult i32 %17, %18
  br i1 %.not23, label %.thread, label %20

.thread:                                          ; preds = %16
  %19 = getelementptr inbounds nuw i8, ptr %0, i64 28
  store i8 1, ptr %19, align 4
  br label %29

20:                                               ; preds = %16
  %21 = add nsw i32 %17, %8
  br label %22

22:                                               ; preds = %20, %14
  %.018 = phi i32 [ %21, %20 ], [ %8, %14 ]
  %23 = tail call ptr @getIthJsonbValueFromContainer(ptr noundef nonnull %9, i32 noundef %.018) #15
  %.not24 = icmp eq ptr %23, null
  br i1 %.not24, label %27, label %24

24:                                               ; preds = %22
  %25 = tail call ptr @JsonbValueToJsonb(ptr noundef nonnull %23) #15
  %26 = ptrtoint ptr %25 to i64
  br label %29

27:                                               ; preds = %22
  %28 = getelementptr inbounds nuw i8, ptr %0, i64 28
  store i8 1, ptr %28, align 4
  br label %29

29:                                               ; preds = %.thread, %27, %24, %12
  %.0 = phi i64 [ %26, %24 ], [ 0, %27 ], [ 0, %12 ], [ 0, %.thread ]
  ret i64 %.0
}